target datalayout = "e-m:e-p270:32:32-p271:32:32-p272:64:64-i64:64-i128:128-f80:128-n8:16:32:64-S128"
target triple = "x86_64-unknown-linux-gnu"

%"struct.OpenImageIO_v2_6_0::TypeDesc" = type { i8, i8, i8, i8, i32 }
%"class.OpenImageIO_v2_6_0::ImageOutput" = type { ptr, %"class.OpenImageIO_v2_6_0::ImageSpec", %"class.std::unique_ptr.12" }
%"class.OpenImageIO_v2_6_0::ImageSpec" = type { i32, i32, i32, i32, i32, i32, i32, i32, i32, i32, i32, i32, i32, i32, i32, i32, %"struct.OpenImageIO_v2_6_0::TypeDesc", %"class.std::vector", %"class.std::vector.2", i32, i32, i8, %"class.OpenImageIO_v2_6_0::ParamValueList" }
%"class.std::vector" = type { %"struct.std::_Vector_base" }
%"struct.std::_Vector_base" = type { %"struct.std::_Vector_base<OpenImageIO_v2_6_0::TypeDesc, std::allocator<OpenImageIO_v2_6_0::TypeDesc>>::_Vector_impl" }
%"struct.std::_Vector_base<OpenImageIO_v2_6_0::TypeDesc, std::allocator<OpenImageIO_v2_6_0::TypeDesc>>::_Vector_impl" = type { %"struct.std::_Vector_base<OpenImageIO_v2_6_0::TypeDesc, std::allocator<OpenImageIO_v2_6_0::TypeDesc>>::_Vector_impl_data" }
%"struct.std::_Vector_base<OpenImageIO_v2_6_0::TypeDesc, std::allocator<OpenImageIO_v2_6_0::TypeDesc>>::_Vector_impl_data" = type { ptr, ptr, ptr }
%"class.std::vector.2" = type { %"struct.std::_Vector_base.3" }
%"struct.std::_Vector_base.3" = type { %"struct.std::_Vector_base<std::__cxx11::basic_string<char>, std::allocator<std::__cxx11::basic_string<char>>>::_Vector_impl" }
%"struct.std::_Vector_base<std::__cxx11::basic_string<char>, std::allocator<std::__cxx11::basic_string<char>>>::_Vector_impl" = type { %"struct.std::_Vector_base<std::__cxx11::basic_string<char>, std::allocator<std::__cxx11::basic_string<char>>>::_Vector_impl_data" }
%"struct.std::_Vector_base<std::__cxx11::basic_string<char>, std::allocator<std::__cxx11::basic_string<char>>>::_Vector_impl_data" = type { ptr, ptr, ptr }
%"class.OpenImageIO_v2_6_0::ParamValueList" = type { %"class.std::vector.7" }
%"class.std::vector.7" = type { %"struct.std::_Vector_base.8" }
%"struct.std::_Vector_base.8" = type { %"struct.std::_Vector_base<OpenImageIO_v2_6_0::ParamValue, std::allocator<OpenImageIO_v2_6_0::ParamValue>>::_Vector_impl" }
%"struct.std::_Vector_base<OpenImageIO_v2_6_0::ParamValue, std::allocator<OpenImageIO_v2_6_0::ParamValue>>::_Vector_impl" = type { %"struct.std::_Vector_base<OpenImageIO_v2_6_0::ParamValue, std::allocator<OpenImageIO_v2_6_0::ParamValue>>::_Vector_impl_data" }
%"struct.std::_Vector_base<OpenImageIO_v2_6_0::ParamValue, std::allocator<OpenImageIO_v2_6_0::ParamValue>>::_Vector_impl_data" = type { ptr, ptr, ptr }
%"class.std::unique_ptr.12" = type { %"struct.std::__uniq_ptr_data.13" }
%"struct.std::__uniq_ptr_data.13" = type { %"class.std::__uniq_ptr_impl.14" }
%"class.std::__uniq_ptr_impl.14" = type { %"class.std::tuple.15" }
%"class.std::tuple.15" = type { %"struct.std::_Tuple_impl.16" }
%"struct.std::_Tuple_impl.16" = type { %"struct.std::_Tuple_impl.17", %"struct.std::_Head_base.19" }
%"struct.std::_Tuple_impl.17" = type { %"struct.std::_Head_base.18" }
%"struct.std::_Head_base.18" = type { ptr }
%"struct.std::_Head_base.19" = type { ptr }

; Function Attrs: mustprogress nounwind uwtable
define linkonce_odr void @_ZN18OpenImageIO_v2_6_08TypeDescC2ERKS0_(ptr noundef nonnull align 4 dereferenceable(8) %this, ptr noundef nonnull align 4 dereferenceable(8) %t) unnamed_addr #4 comdat align 2 {
entry:
  %this.addr = alloca ptr, align 8
  %t.addr = alloca ptr, align 8
  store ptr %this, ptr %this.addr, align 8
  store ptr %t, ptr %t.addr, align 8
  %this1 = load ptr, ptr %this.addr, align 8
  %basetype = getelementptr inbounds %"struct.OpenImageIO_v2_6_0::TypeDesc", ptr %this1, i32 0, i32 0
  %0 = load ptr, ptr %t.addr, align 8
  %basetype2 = getelementptr inbounds %"struct.OpenImageIO_v2_6_0::TypeDesc", ptr %0, i32 0, i32 0
  %1 = load i8, ptr %basetype2, align 4
  store i8 %1, ptr %basetype, align 4
  %aggregate = getelementptr inbounds %"struct.OpenImageIO_v2_6_0::TypeDesc", ptr %this1, i32 0, i32 1
  %2 = load ptr, ptr %t.addr, align 8
  %aggregate3 = getelementptr inbounds %"struct.OpenImageIO_v2_6_0::TypeDesc", ptr %2, i32 0, i32 1
  %3 = load i8, ptr %aggregate3, align 1
  store i8 %3, ptr %aggregate, align 1
  %vecsemantics = getelementptr inbounds %"struct.OpenImageIO_v2_6_0::TypeDesc", ptr %this1, i32 0, i32 2
  %4 = load ptr, ptr %t.addr, align 8
  %vecsemantics4 = getelementptr inbounds %"struct.OpenImageIO_v2_6_0::TypeDesc", ptr %4, i32 0, i32 2
  %5 = load i8, ptr %vecsemantics4, align 2
  store i8 %5, ptr %vecsemantics, align 2
  %reserved = getelementptr inbounds %"struct.OpenImageIO_v2_6_0::TypeDesc", ptr %this1, i32 0, i32 3
  store i8 0, ptr %reserved, align 1
  %arraylen = getelementptr inbounds %"struct.OpenImageIO_v2_6_0::TypeDesc", ptr %this1, i32 0, i32 4
  %6 = load ptr, ptr %t.addr, align 8
  %arraylen5 = getelementptr inbounds %"struct.OpenImageIO_v2_6_0::TypeDesc", ptr %6, i32 0, i32 4
  %7 = load i32, ptr %arraylen5, align 4
  store i32 %7, ptr %arraylen, align 4
  ret void
}

; Function Attrs: mustprogress nounwind uwtable
define linkonce_odr noundef nonnull align 4 dereferenceable(4) ptr @_ZSt3maxIiERKT_S2_S2_(ptr noundef nonnull align 4 dereferenceable(4) %__a, ptr noundef nonnull align 4 dereferenceable(4) %__b) #4 comdat {
entry:
  %retval = alloca ptr, align 8
  %__a.addr = alloca ptr, align 8
  %__b.addr = alloca ptr, align 8
  store ptr %__a, ptr %__a.addr, align 8
  store ptr %__b, ptr %__b.addr, align 8
  %0 = load ptr, ptr %__a.addr, align 8
  %1 = load i32, ptr %0, align 4
  %2 = load ptr, ptr %__b.addr, align 8
  %3 = load i32, ptr %2, align 4
  %cmp = icmp slt i32 %1, %3
  br i1 %cmp, label %if.then, label %if.end

if.then:                                          ; preds = %entry
  %4 = load ptr, ptr %__b.addr, align 8
  store ptr %4, ptr %retval, align 8
  br label %return

if.end:                                           ; preds = %entry
  %5 = load ptr, ptr %__a.addr, align 8
  store ptr %5, ptr %retval, align 8
  br label %return

return:                                           ; preds = %if.end, %if.then
  %6 = load ptr, ptr %retval, align 8
  ret ptr %6
}

; Function Attrs: mustprogress uwtable
define noundef ptr @_ZN18OpenImageIO_v2_6_011ImageOutput14to_native_tileENS_8TypeDescEPKvlllRSt6vectorIhSaIhEEjiii(ptr noundef nonnull align 8 dereferenceable(184) %this, ptr noundef %format, ptr noundef %data, i64 noundef %xstride, i64 noundef %ystride, i64 noundef %zstride, ptr noundef nonnull align 8 dereferenceable(24) %scratch, i32 noundef %dither, i32 noundef %xorigin, i32 noundef %yorigin, i32 noundef %zorigin) #6 align 2 {
entry:
  %this.addr = alloca ptr, align 8
  %format.indirect_addr = alloca ptr, align 8
  %data.addr = alloca ptr, align 8
  %xstride.addr = alloca i64, align 8
  %ystride.addr = alloca i64, align 8
  %zstride.addr = alloca i64, align 8
  %scratch.addr = alloca ptr, align 8
  %dither.addr = alloca i32, align 4
  %xorigin.addr = alloca i32, align 4
  %yorigin.addr = alloca i32, align 4
  %zorigin.addr = alloca i32, align 4
  %ref.tmp = alloca i32, align 4
  %agg.tmp = alloca %"struct.OpenImageIO_v2_6_0::TypeDesc", align 4
  store ptr %this, ptr %this.addr, align 8
  store ptr %format, ptr %format.indirect_addr, align 8
  store ptr %data, ptr %data.addr, align 8
  store i64 %xstride, ptr %xstride.addr, align 8
  store i64 %ystride, ptr %ystride.addr, align 8
  store i64 %zstride, ptr %zstride.addr, align 8
  store ptr %scratch, ptr %scratch.addr, align 8
  store i32 %dither, ptr %dither.addr, align 4
  store i32 %xorigin, ptr %xorigin.addr, align 4
  store i32 %yorigin, ptr %yorigin.addr, align 4
  store i32 %zorigin, ptr %zorigin.addr, align 4
  %this1 = load ptr, ptr %this.addr, align 8
  %m_spec = getelementptr inbounds %"class.OpenImageIO_v2_6_0::ImageOutput", ptr %this1, i32 0, i32 1
  %tile_width = getelementptr inbounds %"class.OpenImageIO_v2_6_0::ImageSpec", ptr %m_spec, i32 0, i32 12
  %0 = load i32, ptr %tile_width, align 8
  %m_spec2 = getelementptr inbounds %"class.OpenImageIO_v2_6_0::ImageOutput", ptr %this1, i32 0, i32 1
  %tile_height = getelementptr inbounds %"class.OpenImageIO_v2_6_0::ImageSpec", ptr %m_spec2, i32 0, i32 13
  %1 = load i32, ptr %tile_height, align 4
  store i32 1, ptr %ref.tmp, align 4
  %m_spec3 = getelementptr inbounds %"class.OpenImageIO_v2_6_0::ImageOutput", ptr %this1, i32 0, i32 1
  %tile_depth = getelementptr inbounds %"class.OpenImageIO_v2_6_0::ImageSpec", ptr %m_spec3, i32 0, i32 14
  %call = call noundef nonnull align 4 dereferenceable(4) ptr @_ZSt3maxIiERKT_S2_S2_(ptr noundef nonnull align 4 dereferenceable(4) %ref.tmp, ptr noundef nonnull align 4 dereferenceable(4) %tile_depth)
  %2 = load i32, ptr %call, align 4
  call void @_ZN18OpenImageIO_v2_6_08TypeDescC2ERKS0_(ptr noundef nonnull align 4 dereferenceable(8) %agg.tmp, ptr noundef nonnull align 4 dereferenceable(8) %format) #3
  %3 = load ptr, ptr %data.addr, align 8
  %4 = load i64, ptr %xstride.addr, align 8
  %5 = load i64, ptr %ystride.addr, align 8
  %6 = load i64, ptr %zstride.addr, align 8
  %7 = load ptr, ptr %scratch.addr, align 8
  %8 = load i32, ptr %dither.addr, align 4
  %9 = load i32, ptr %xorigin.addr, align 4
  %10 = load i32, ptr %yorigin.addr, align 4
  %11 = load i32, ptr %zorigin.addr, align 4
  %call4 = call noundef ptr @_ZN18OpenImageIO_v2_6_011ImageOutput19to_native_rectangleEiiiiiiNS_8TypeDescEPKvlllRSt6vectorIhSaIhEEjiii(ptr noundef nonnull align 8 dereferenceable(184) %this1, i32 noundef 0, i32 noundef %0, i32 noundef 0, i32 noundef %1, i32 noundef 0, i32 noundef %2, ptr noundef %agg.tmp, ptr noundef %3, i64 noundef %4, i64 noundef %5, i64 noundef %6, ptr noundef nonnull align 8 dereferenceable(24) %7, i32 noundef %8, i32 noundef %9, i32 noundef %10, i32 noundef %11)
  ret ptr %call4
}