; Function Attrs: mustprogress uwtable
define noundef ptr @_ZN18OpenImageIO_v2_6_011ImageOutput14to_native_tileENS_8TypeDescEPKvlllRSt6vectorIhSaIhEEjiii(ptr noundef nonnull align 8 dereferenceable(184) %this, ptr nocapture noundef readonly %format, ptr noundef %data, i64 noundef %xstride, i64 noundef %ystride, i64 noundef %zstride, ptr noundef nonnull align 8 dereferenceable(24) %scratch, i32 noundef %dither, i32 noundef %xorigin, i32 noundef %yorigin, i32 noundef %zorigin) local_unnamed_addr #5 align 2 {
entry:
  %agg.tmp = alloca %"struct.OpenImageIO_v2_6_0::TypeDesc", align 4
  %tile_width = getelementptr inbounds i8, ptr %this, i64 56
  %0 = load i32, ptr %tile_width, align 8
  %tile_height = getelementptr inbounds i8, ptr %this, i64 60
  %1 = load i32, ptr %tile_height, align 4
  %tile_depth = getelementptr inbounds i8, ptr %this, i64 64
  %2 = load i32, ptr %tile_depth, align 8
  %.sroa.speculated = tail call i32 @llvm.smax.i32(i32 %2, i32 1)
  %3 = load i8, ptr %format, align 4
  store i8 %3, ptr %agg.tmp, align 4
  %aggregate.i = getelementptr inbounds i8, ptr %agg.tmp, i64 1
  %aggregate3.i = getelementptr inbounds i8, ptr %format, i64 1
  %4 = load i8, ptr %aggregate3.i, align 1
  store i8 %4, ptr %aggregate.i, align 1
  %vecsemantics.i = getelementptr inbounds i8, ptr %agg.tmp, i64 2
  %vecsemantics4.i = getelementptr inbounds i8, ptr %format, i64 2
  %5 = load i8, ptr %vecsemantics4.i, align 2
  store i8 %5, ptr %vecsemantics.i, align 2
  %reserved.i = getelementptr inbounds i8, ptr %agg.tmp, i64 3
  store i8 0, ptr %reserved.i, align 1
  %arraylen.i = getelementptr inbounds i8, ptr %agg.tmp, i64 4
  %arraylen5.i = getelementptr inbounds i8, ptr %format, i64 4
  %6 = load i32, ptr %arraylen5.i, align 4
  store i32 %6, ptr %arraylen.i, align 4
  %call4 = call noundef ptr @_ZN18OpenImageIO_v2_6_011ImageOutput19to_native_rectangleEiiiiiiNS_8TypeDescEPKvlllRSt6vectorIhSaIhEEjiii(ptr noundef nonnull align 8 dereferenceable(184) %this, i32 noundef 0, i32 noundef %0, i32 noundef 0, i32 noundef %1, i32 noundef 0, i32 noundef %.sroa.speculated, ptr noundef nonnull %agg.tmp, ptr noundef %data, i64 noundef %xstride, i64 noundef %ystride, i64 noundef %zstride, ptr noundef nonnull align 8 dereferenceable(24) %scratch, i32 noundef %dither, i32 noundef %xorigin, i32 noundef %yorigin, i32 noundef %zorigin)
  ret ptr %call4
}